(dp0
S'QASP180-QARG426'
p1
(dp2
S'Frame'
p3
(lp4
F0.0
aF1.0
aF2.0
aF3.0
aF4.0
aF5.0
aF6.0
asS'Elec'
p5
(lp6
F-187.2253
aF-218.7646
aF-203.0873
aF-214.1624
aF-213.9202
aF-208.0541
aF-219.3872
asS'VdW'
p7
(lp8
F3.0947
aF5.4024
aF5.0559
aF5.6737
aF11.2197
aF4.1452
aF1.1552
asS'Total'
p9
(lp10
F-184.1306
aF-213.3622
aF-198.0315
aF-208.4887
aF-202.7005
aF-203.909
aF-218.2321
assS'QARG426-QASP180'
p11
g2
s.