(dp0
S'QASP180-QARG426'
p1
(dp2
S'Frame'
p3
(lp4
F0.0
aF1.0
aF2.0
aF3.0
aF4.0
aF5.0
aF6.0
aF7.0
aF8.0
aF9.0
aF10.0
aF11.0
aF12.0
aF13.0
aF14.0
aF15.0
asS'Elec'
p5
(lp6
F-187.2253
aF-234.1733
aF-222.6596
aF-224.7284
aF-223.8596
aF-222.304
aF-234.8184
aF-219.4016
aF-216.3496
aF-209.3677
aF-225.9711
aF-204.5433
aF-221.8732
aF-204.1172
aF-208.4237
aF-197.7315
asS'VdW'
p7
(lp8
F3.0947
aF14.9552
aF9.8929
aF7.1684
aF6.6749
aF8.5214
aF18.3673
aF8.9521
aF10.4588
aF6.2836
aF14.997
aF6.1839
aF10.0565
aF7.5203
aF3.778
aF5.105
asS'Total'
p9
(lp10
F-184.1306
aF-219.2181
aF-212.7666
aF-217.5599
aF-217.1847
aF-213.7827
aF-216.4511
aF-210.4495
aF-205.8908
aF-203.0841
aF-210.9742
aF-198.3594
aF-211.8167
aF-196.5969
aF-204.6457
aF-192.6265
assS'QARG426-QASP180'
p11
g2
s.