(dp0
S'QASP180-QARG426'
p1
(dp2
S'Frame'
p3
(lp4
F0.0
aF1.0
aF2.0
aF3.0
aF4.0
aF5.0
aF6.0
aF7.0
aF8.0
asS'Elec'
p5
(lp6
F-187.2253
aF-203.9901
aF-203.4516
aF-203.3044
aF-197.4471
aF-201.1924
aF-208.8889
aF-203.8119
aF-192.8559
asS'VdW'
p7
(lp8
F3.0947
aF3.3447
aF2.6418
aF4.8917
aF6.7394
aF2.3853
aF2.3502
aF4.7177
aF0.2225
asS'Total'
p9
(lp10
F-184.1306
aF-200.6454
aF-200.8097
aF-198.4127
aF-190.7077
aF-198.8071
aF-206.5386
aF-199.0943
aF-192.6334
assS'QARG426-QASP180'
p11
g2
s.