(dp0
S'QASP180-QARG426'
p1
(dp2
S'Frame'
p3
(lp4
F0.0
aF1.0
aF2.0
aF3.0
aF4.0
aF5.0
aF6.0
aF7.0
aF8.0
asS'Elec'
p5
(lp6
F-187.2253
aF-234.1318
aF-207.8828
aF-203.2973
aF-208.5287
aF-229.4628
aF-212.4932
aF-215.9926
aF-208.9939
asS'VdW'
p7
(lp8
F3.0947
aF7.4101
aF4.745
aF4.7307
aF4.0953
aF10.1489
aF6.3535
aF5.9419
aF5.0552
asS'Total'
p9
(lp10
F-184.1306
aF-226.7217
aF-203.1378
aF-198.5665
aF-204.4333
aF-219.314
aF-206.1398
aF-210.0507
aF-203.9388
assS'QARG426-QASP180'
p11
g2
s.